target datalayout = "e-m:e-p270:32:32-p271:32:32-p272:64:64-i64:64-i128:128-f80:128-n8:16:32:64-S128"
target triple = "x86_64-pc-linux-gnu"

%class.arith_util = type { ptr, ptr }
%class.obj_ref = type { ptr, ptr }
%class.ref_vector.52 = type { %class.ref_vector_core.53 }
%class.ref_vector_core.53 = type { %class.ref_manager_wrapper.54, %class.ptr_vector.55 }
%class.ref_manager_wrapper.54 = type { ptr }
%class.ptr_vector.55 = type { %class.vector.56 }
%class.vector.56 = type { ptr }
%class.rewriter_core = type { ptr, ptr, i8, i8, %class.ptr_vector.76, ptr, %class.svector.78, %class.ref_vector, %class.ptr_vector.76, ptr, %class.ref_vector.52, %class.obj_hashtable.80, ptr, i32, %class.svector.86 }
%class.svector.78 = type { %class.vector.79 }
%class.vector.79 = type { ptr }
%class.ptr_vector.76 = type { %class.vector.77 }
%class.vector.77 = type { ptr }
%class.svector.86 = type { %class.vector.87 }
%class.vector.87 = type { ptr }
%class.var_shifter = type <{ %class.var_shifter_core, i32, i32, i32, [4 x i8] }>
%class.var_shifter_core = type { %class.rewriter_core }
%class.inv_var_shifter = type <{ %class.var_shifter_core, i32, [4 x i8] }>
%class.ptr_vector.126 = type { %class.vector.127 }
%class.vector.127 = type { ptr }
%class.region = type { ptr, ptr, ptr, ptr, ptr }
%class.ptr_vector.50 = type { %class.vector.51 }
%class.vector.51 = type { ptr }
%class.ptr_vector.6 = type { %class.vector.7 }
%class.vector.7 = type { ptr }
%class.svector.8 = type { %class.vector.9 }
%class.vector.9 = type { ptr }
%class.obj_ref.88 = type { ptr, ptr }
%class.obj_map.20 = type { %class.core_hashtable.21 }
%class.core_hashtable.21 = type <{ ptr, i32, i32, i32, [4 x i8] }>
%class.obj_hashtable.80 = type { %class.core_hashtable.base.84, [4 x i8] }
%class.core_hashtable.base.84 = type <{ ptr, i32, i32, i32 }>
%class.ref_vector = type { %class.ref_vector_core }
%class.ref_vector_core = type { %class.ref_manager_wrapper, %class.ptr_vector.6 }
%class.ref_manager_wrapper = type { ptr }
%"class.smt::quantifier_manager" = type <{ ptr, i32, i8, [3 x i8] }>
%"struct.smt::quantifier_manager::imp" = type <{ ptr, ptr, ptr, %"class.smt::qi_queue", %class.obj_map.329, %"class.q::quantifier_stat_gen", %class.ptr_vector.50, %class.scoped_ptr.336, i32, [4 x i8] }>
%"class.smt::qi_queue" = type { ptr, ptr, ptr, ptr, %"struct.smt::qi_queue_stats", %"class.smt::checker", %class.obj_ref, %class.obj_ref, %class.cost_parser, %class.cost_evaluator, %class.cached_var_subst, %class.svector.323, double, %class.svector.325, %class.svector.325, %class.ref_vector, %class.svector.8, %class.svector.327 }
%"struct.smt::qi_queue_stats" = type { i32, i32 }
%"class.smt::checker" = type { ptr, ptr, [2 x %class.obj_map.295], %class.obj_map.300, i32, ptr }
%class.obj_map.295 = type { %class.core_hashtable.296 }
%class.core_hashtable.296 = type <{ ptr, i32, i32, i32, [4 x i8] }>
%class.obj_map.300 = type { %class.core_hashtable.301 }
%class.core_hashtable.301 = type <{ ptr, i32, i32, i32, [4 x i8] }>
%class.cost_parser = type { %class.simple_parser, %class.arith_util, %class.ref_vector.313 }
%class.simple_parser = type { ptr, ptr, %class.map.305, %class.map.309, %class.ref_vector }
%class.map.305 = type { %class.table2map.306 }
%class.table2map.306 = type { %class.core_hashtable.307 }
%class.core_hashtable.307 = type <{ ptr, i32, i32, i32, [4 x i8] }>
%class.map.309 = type { %class.table2map.310 }
%class.table2map.310 = type { %class.core_hashtable.311 }
%class.core_hashtable.311 = type <{ ptr, i32, i32, i32, [4 x i8] }>
%class.ref_vector.313 = type { %class.ref_vector_core.314 }
%class.ref_vector_core.314 = type { %class.ref_manager_wrapper.315, %class.ptr_vector.126 }
%class.ref_manager_wrapper.315 = type { ptr }
%class.cost_evaluator = type { ptr, %class.arith_util, i32, ptr }
%class.cached_var_subst = type { ptr, %class.var_subst, %class.ref_vector, %class.map.317, %class.region, %class.ptr_vector.321, ptr }
%class.var_subst = type { %class.beta_reducer, i8, [7 x i8] }
%class.beta_reducer = type <{ %class.rewriter_tpl.316, [8 x i8] }>
%class.rewriter_tpl.316 = type { %class.rewriter_core, ptr, i32, %class.ptr_vector.6, %class.var_shifter, %class.inv_var_shifter, %class.obj_ref, %class.obj_ref.88, %class.obj_ref.88, %class.svector.8 }
%class.map.317 = type { %class.table2map.318 }
%class.table2map.318 = type { %class.core_hashtable.319 }
%class.core_hashtable.319 = type <{ ptr, i32, i32, i32, [4 x i8] }>
%class.ptr_vector.321 = type { %class.vector.322 }
%class.vector.322 = type { ptr }
%class.svector.323 = type { %class.vector.324 }
%class.vector.324 = type { ptr }
%class.svector.325 = type { %class.vector.326 }
%class.vector.326 = type { ptr }
%class.svector.327 = type { %class.vector.328 }
%class.vector.328 = type { ptr }
%class.obj_map.329 = type { %class.core_hashtable.330 }
%class.core_hashtable.330 = type <{ ptr, i32, i32, i32, [4 x i8] }>
%"class.q::quantifier_stat_gen" = type <{ ptr, ptr, %class.obj_map.20, %class.svector.334, %class.approx_nat, [4 x i8] }>
%class.svector.334 = type { %class.vector.335 }
%class.vector.335 = type { ptr }
%class.approx_nat = type { i32 }
%class.scoped_ptr.336 = type { ptr }

; Function Attrs: mustprogress nounwind uwtable
define linkonce_odr hidden noundef ptr @_ZNK10scoped_ptrIN3smt25quantifier_manager_pluginEEptEv(ptr noundef nonnull align 8 dereferenceable(8) %0) #4 comdat align 2 {
  %2 = alloca ptr, align 8
  store ptr %0, ptr %2, align 8, !tbaa !206
  %3 = load ptr, ptr %2, align 8
  %4 = getelementptr inbounds nuw %class.scoped_ptr.336, ptr %3, i32 0, i32 0
  %5 = load ptr, ptr %4, align 8, !tbaa !208
  ret ptr %5
}

; Function Attrs: mustprogress uwtable
define linkonce_odr hidden void @_ZN3smt18quantifier_manager3imp4pushEv(ptr noundef nonnull align 8 dereferenceable(1172) %0) #6 comdat align 2 {
  %2 = alloca ptr, align 8
  store ptr %0, ptr %2, align 8, !tbaa !98
  %3 = load ptr, ptr %2, align 8
  %4 = getelementptr inbounds nuw %"struct.smt::quantifier_manager::imp", ptr %3, i32 0, i32 7
  %5 = call noundef ptr @_ZNK10scoped_ptrIN3smt25quantifier_manager_pluginEEptEv(ptr noundef nonnull align 8 dereferenceable(8) %4)
  %6 = load ptr, ptr %5, align 8, !tbaa !71
  %7 = getelementptr inbounds ptr, ptr %6, i64 19
  %8 = load ptr, ptr %7, align 8
  call void %8(ptr noundef nonnull align 8 dereferenceable(8) %5)
  %9 = getelementptr inbounds nuw %"struct.smt::quantifier_manager::imp", ptr %3, i32 0, i32 3
  call void @_ZN3smt8qi_queue10push_scopeEv(ptr noundef nonnull align 8 dereferenceable(1048) %9)
  ret void
}

; Function Attrs: mustprogress uwtable
define hidden void @_ZN3smt18quantifier_manager4pushEv(ptr noundef nonnull align 8 dereferenceable(13) %0) #6 align 2 {
  %2 = alloca ptr, align 8
  store ptr %0, ptr %2, align 8, !tbaa !87
  %3 = load ptr, ptr %2, align 8
  %4 = getelementptr inbounds nuw %"class.smt::quantifier_manager", ptr %3, i32 0, i32 2
  %5 = load i8, ptr %4, align 4, !tbaa !97, !range !12, !noundef !13
  %6 = trunc i8 %5 to i1
  br i1 %6, label %7, label %11

7:                                                ; preds = %1
  %8 = getelementptr inbounds nuw %"class.smt::quantifier_manager", ptr %3, i32 0, i32 1
  %9 = load i32, ptr %8, align 8, !tbaa !96
  %10 = add i32 %9, 1
  store i32 %10, ptr %8, align 8, !tbaa !96
  br label %14

11:                                               ; preds = %1
  %12 = getelementptr inbounds nuw %"class.smt::quantifier_manager", ptr %3, i32 0, i32 0
  %13 = load ptr, ptr %12, align 8, !tbaa !93
  call void @_ZN3smt18quantifier_manager3imp4pushEv(ptr noundef nonnull align 8 dereferenceable(1172) %13)
  br label %14

14:                                               ; preds = %11, %7
  ret void
}