; Function Attrs: mustprogress uwtable
define hidden void @_ZN3smt18quantifier_manager4pushEv(ptr noundef nonnull align 8 captures(none) dereferenceable(13) %0) local_unnamed_addr #4 align 2 {
  %2 = getelementptr inbounds nuw i8, ptr %0, i64 12
  %3 = load i8, ptr %2, align 4, !tbaa !89, !range !38, !noundef !39
  %4 = trunc nuw i8 %3 to i1
  br i1 %4, label %5, label %9

5:                                                ; preds = %1
  %6 = getelementptr inbounds nuw i8, ptr %0, i64 8
  %7 = load i32, ptr %6, align 8, !tbaa !88
  %8 = add i32 %7, 1
  store i32 %8, ptr %6, align 8, !tbaa !88
  br label %17

9:                                                ; preds = %1
  %10 = load ptr, ptr %0, align 8, !tbaa !82
  %11 = getelementptr inbounds nuw i8, ptr %10, i64 1160
  %12 = load ptr, ptr %11, align 8, !tbaa !85
  %13 = load ptr, ptr %12, align 8, !tbaa !56
  %14 = getelementptr inbounds nuw i8, ptr %13, i64 152
  %15 = load ptr, ptr %14, align 8
  tail call void %15(ptr noundef nonnull align 8 dereferenceable(8) %12)
  %16 = getelementptr inbounds nuw i8, ptr %10, i64 24
  tail call void @_ZN3smt8qi_queue10push_scopeEv(ptr noundef nonnull align 8 dereferenceable(1048) %16)
  br label %17

17:                                               ; preds = %9, %5
  ret void
}